; Function Attrs: nofree norecurse nosync nounwind memory(argmem: read) uwtable
define dso_local i64 @php_strcspn(ptr noundef %0, ptr noundef %1, ptr noundef %2, ptr noundef %3) local_unnamed_addr #11 {
  %5 = alloca [256 x i8], align 16
  %6 = ptrtoint ptr %0 to i64
  %7 = ptrtoint ptr %2 to i64
  %8 = ptrtoint ptr %3 to i64
  %9 = ptrtoint ptr %1 to i64
  %10 = sub i64 %8, %9
  %11 = icmp eq i64 %10, 1
  br i1 %11, label %.preheader.i, label %19

.preheader.i:                                     ; preds = %4
  %12 = icmp ult ptr %0, %2
  br i1 %12, label %.lr.ph35.i, label %php_strspn_strcspn_common.exit

.lr.ph35.i:                                       ; preds = %.preheader.i
  %13 = load i8, ptr %1, align 1, !tbaa !10
  %14 = sub i64 %7, %6
  %scevgep41.i = getelementptr i8, ptr %0, i64 %14
  br label %15

15:                                               ; preds = %17, %.lr.ph35.i
  %.02534.i = phi ptr [ %0, %.lr.ph35.i ], [ %18, %17 ]
  %16 = load i8, ptr %.02534.i, align 1, !tbaa !10
  %.not = icmp eq i8 %16, %13
  br i1 %.not, label %.critedge.loopexit.i, label %17

17:                                               ; preds = %15
  %18 = getelementptr inbounds nuw i8, ptr %.02534.i, i64 1
  %exitcond42.not.i = icmp eq ptr %18, %2
  br i1 %exitcond42.not.i, label %.critedge.loopexit.i, label %15

.critedge.loopexit.i:                             ; preds = %17, %15
  %.025.lcssa.ph.i = phi ptr [ %.02534.i, %15 ], [ %scevgep41.i, %17 ]
  %.pre.i = ptrtoint ptr %.025.lcssa.ph.i to i64
  br label %php_strspn_strcspn_common.exit

19:                                               ; preds = %4
  call void @llvm.lifetime.start.p0(i64 256, ptr nonnull %5) #28
  %20 = icmp ult ptr %1, %3
  call void @llvm.memset.p0.i64(ptr noundef nonnull align 16 dereferenceable(256) %5, i8 0, i64 256, i1 false)
  br i1 %20, label %.lr.ph.i, label %.preheader28.i

.preheader28.i:                                   ; preds = %.lr.ph.i, %19
  %21 = icmp ult ptr %0, %2
  br i1 %21, label %.lr.ph31.i, label %.critedge2.i

.lr.ph31.i:                                       ; preds = %.preheader28.i
  %22 = sub i64 %7, %6
  %scevgep39.i = getelementptr i8, ptr %0, i64 %22
  br label %27

.lr.ph.i:                                         ; preds = %19, %.lr.ph.i
  %.02729.i = phi ptr [ %26, %.lr.ph.i ], [ %1, %19 ]
  %23 = load i8, ptr %.02729.i, align 1, !tbaa !10
  %24 = zext i8 %23 to i64
  %25 = getelementptr inbounds nuw [256 x i8], ptr %5, i64 0, i64 %24
  store i8 1, ptr %25, align 1, !tbaa !27
  %26 = getelementptr inbounds nuw i8, ptr %.02729.i, i64 1
  %exitcond.not.i = icmp eq ptr %26, %3
  br i1 %exitcond.not.i, label %.preheader28.i, label %.lr.ph.i

27:                                               ; preds = %33, %.lr.ph31.i
  %.030.i = phi ptr [ %0, %.lr.ph31.i ], [ %34, %33 ]
  %28 = load i8, ptr %.030.i, align 1, !tbaa !10
  %29 = zext i8 %28 to i64
  %30 = getelementptr inbounds nuw [256 x i8], ptr %5, i64 0, i64 %29
  %31 = load i8, ptr %30, align 1, !tbaa !27, !range !29, !noundef !30
  %32 = icmp eq i8 %31, 0
  br i1 %32, label %33, label %.critedge2.loopexit.i

33:                                               ; preds = %27
  %34 = getelementptr inbounds nuw i8, ptr %.030.i, i64 1
  %exitcond40.not.i = icmp eq ptr %34, %2
  br i1 %exitcond40.not.i, label %.critedge2.loopexit.i, label %27

.critedge2.loopexit.i:                            ; preds = %33, %27
  %.0.lcssa.ph.i = phi ptr [ %.030.i, %27 ], [ %scevgep39.i, %33 ]
  %.pre43.i = ptrtoint ptr %.0.lcssa.ph.i to i64
  br label %.critedge2.i

.critedge2.i:                                     ; preds = %.critedge2.loopexit.i, %.preheader28.i
  %.pre-phi44.i = phi i64 [ %.pre43.i, %.critedge2.loopexit.i ], [ %6, %.preheader28.i ]
  call void @llvm.lifetime.end.p0(i64 256, ptr nonnull %5) #28
  br label %php_strspn_strcspn_common.exit

php_strspn_strcspn_common.exit:                   ; preds = %.preheader.i, %.critedge.loopexit.i, %.critedge2.i
  %.pre-phi.pn.i = phi i64 [ %.pre-phi44.i, %.critedge2.i ], [ %.pre.i, %.critedge.loopexit.i ], [ %6, %.preheader.i ]
  %.026.i = sub i64 %.pre-phi.pn.i, %6
  ret i64 %.026.i
}